	.text
	.file	"multipleFunctions.c"
	.globl	add                     # -- Begin function add
	.p2align	4, 0x90
	.type	add,@function
add:                                    # @add
	.cfi_startproc
# %bb.0:                                # %entry
	pushq	%rbp
	.cfi_def_cfa_offset 16
	.cfi_offset %rbp, -16
	movq	%rsp, %rbp
	.cfi_def_cfa_register %rbp
	movl	%edi, -8(%rbp)
	movl	%esi, -4(%rbp)
	movl	-8(%rbp), %eax
	addl	-4(%rbp), %eax
	popq	%rbp
	.cfi_def_cfa %rsp, 8
	retq
.Lfunc_end0:
	.size	add, .Lfunc_end0-add
	.cfi_endproc
                                        # -- End function
	.section	.rodata.cst4,"aM",@progbits,4
	.p2align	2               # -- Begin function main
.LCPI1_0:
	.long	1084227584              # float 5
	.text
	.globl	main
	.p2align	4, 0x90
	.type	main,@function
main:                                   # @main
	.cfi_startproc
# %bb.0:                                # %entry
	pushq	%rbp
	.cfi_def_cfa_offset 16
	.cfi_offset %rbp, -16
	movq	%rsp, %rbp
	.cfi_def_cfa_register %rbp
	subq	$16, %rsp
	movss	.LCPI1_0(%rip), %xmm0   # xmm0 = mem[0],zero,zero,zero
	movl	$0, -12(%rbp)
	movl	$4, -8(%rbp)
	movss	%xmm0, -4(%rbp)
	movl	-8(%rbp), %edi
	cvttss2si	-4(%rbp), %esi
	callq	add
	addq	$16, %rsp
	popq	%rbp
	.cfi_def_cfa %rsp, 8
	retq
.Lfunc_end1:
	.size	main, .Lfunc_end1-main
	.cfi_endproc
                                        # -- End function

	.ident	"clang version 10.0.0 (git@github.com:llvm/llvm-project.git 2bebe19708c7bb3feb5288d0d0657b5be2fe5fce)"
	.section	".note.GNU-stack","",@progbits
